target datalayout = "e-m:e-p270:32:32-p271:32:32-p272:64:64-i64:64-i128:128-f80:128-n8:16:32:64-S128"
target triple = "x86_64-pc-linux-gnu"

%struct.GVecGen2i = type { ptr, ptr, ptr, ptr, ptr, ptr, i8, i8, i8 }

@tcg_gen_gvec_mov.g = internal constant { ptr, ptr, ptr, ptr, ptr, i32, i8, i8, i8, i8 } { ptr @tcg_gen_mov_i64, ptr null, ptr @vec_mov2, ptr @gen_helper_gvec_mov, ptr null, i32 0, i8 0, i8 1, i8 0, i8 0 }, align 8

; Function Attrs: nounwind sspstrong uwtable
define internal void @expand_clr(i32 noundef %0, i32 noundef %1) #0 {
  %3 = alloca i32, align 4
  %4 = alloca i32, align 4
  store i32 %0, ptr %3, align 4
  store i32 %1, ptr %4, align 4
  %5 = load i32, ptr %3, align 4
  %6 = load i32, ptr %4, align 4
  %7 = load i32, ptr %4, align 4
  call void @do_dup(i32 noundef 0, i32 noundef %5, i32 noundef %6, i32 noundef %7, ptr noundef null, ptr noundef null, i64 noundef 0)
  ret void
}

; Function Attrs: nounwind sspstrong uwtable
define internal void @check_size_align(i32 noundef %0, i32 noundef %1, i32 noundef %2) #0 {
  %4 = alloca i32, align 4
  %5 = alloca i32, align 4
  %6 = alloca i32, align 4
  %7 = alloca i32, align 4
  store i32 %0, ptr %4, align 4
  store i32 %1, ptr %5, align 4
  store i32 %2, ptr %6, align 4
  call void @llvm.lifetime.start.p0(i64 4, ptr %7) #10
  store i32 0, ptr %7, align 4, !annotation !4
  %8 = load i32, ptr %4, align 4
  switch i32 %8, label %18 [
    i32 8, label %9
    i32 16, label %9
    i32 32, label %9
  ]

9:                                                ; preds = %3, %3, %3
  br label %10

10:                                               ; preds = %9
  %11 = load i32, ptr %4, align 4
  %12 = load i32, ptr %5, align 4
  %13 = icmp ule i32 %11, %12
  br i1 %13, label %15, label %14

14:                                               ; preds = %10
  unreachable

15:                                               ; preds = %10
  br label %16

16:                                               ; preds = %15
  br label %17

17:                                               ; preds = %16
  br label %27

18:                                               ; preds = %3
  br label %19

19:                                               ; preds = %18
  %20 = load i32, ptr %4, align 4
  %21 = load i32, ptr %5, align 4
  %22 = icmp eq i32 %20, %21
  br i1 %22, label %24, label %23

23:                                               ; preds = %19
  unreachable

24:                                               ; preds = %19
  br label %25

25:                                               ; preds = %24
  br label %26

26:                                               ; preds = %25
  br label %27

27:                                               ; preds = %26, %17
  br label %28

28:                                               ; preds = %27
  %29 = load i32, ptr %5, align 4
  %30 = icmp ule i32 %29, 2048
  br i1 %30, label %32, label %31

31:                                               ; preds = %28
  unreachable

32:                                               ; preds = %28
  br label %33

33:                                               ; preds = %32
  br label %34

34:                                               ; preds = %33
  %35 = load i32, ptr %5, align 4
  %36 = icmp uge i32 %35, 16
  %37 = select i1 %36, i32 15, i32 7
  store i32 %37, ptr %7, align 4
  br label %38

38:                                               ; preds = %34
  %39 = load i32, ptr %5, align 4
  %40 = load i32, ptr %7, align 4
  %41 = and i32 %39, %40
  %42 = icmp eq i32 %41, 0
  br i1 %42, label %44, label %43

43:                                               ; preds = %38
  unreachable

44:                                               ; preds = %38
  br label %45

45:                                               ; preds = %44
  br label %46

46:                                               ; preds = %45
  br label %47

47:                                               ; preds = %46
  %48 = load i32, ptr %6, align 4
  %49 = load i32, ptr %7, align 4
  %50 = and i32 %48, %49
  %51 = icmp eq i32 %50, 0
  br i1 %51, label %53, label %52

52:                                               ; preds = %47
  unreachable

53:                                               ; preds = %47
  br label %54

54:                                               ; preds = %53
  br label %55

55:                                               ; preds = %54
  call void @llvm.lifetime.end.p0(i64 4, ptr %7) #10
  ret void
}

; Function Attrs: nounwind sspstrong uwtable
define dso_local void @tcg_gen_gvec_mov(i32 noundef %0, i32 noundef %1, i32 noundef %2, i32 noundef %3, i32 noundef %4) #0 {
  %6 = alloca i32, align 4
  %7 = alloca i32, align 4
  %8 = alloca i32, align 4
  %9 = alloca i32, align 4
  %10 = alloca i32, align 4
  store i32 %0, ptr %6, align 4
  store i32 %1, ptr %7, align 4
  store i32 %2, ptr %8, align 4
  store i32 %3, ptr %9, align 4
  store i32 %4, ptr %10, align 4
  %11 = load i32, ptr %7, align 4
  %12 = load i32, ptr %8, align 4
  %13 = icmp ne i32 %11, %12
  br i1 %13, label %14, label %19

14:                                               ; preds = %5
  %15 = load i32, ptr %7, align 4
  %16 = load i32, ptr %8, align 4
  %17 = load i32, ptr %9, align 4
  %18 = load i32, ptr %10, align 4
  call void @tcg_gen_gvec_2(i32 noundef %15, i32 noundef %16, i32 noundef %17, i32 noundef %18, ptr noundef @tcg_gen_gvec_mov.g)
  br label %34

19:                                               ; preds = %5
  %20 = load i32, ptr %9, align 4
  %21 = load i32, ptr %10, align 4
  %22 = load i32, ptr %7, align 4
  call void @check_size_align(i32 noundef %20, i32 noundef %21, i32 noundef %22)
  %23 = load i32, ptr %9, align 4
  %24 = load i32, ptr %10, align 4
  %25 = icmp ult i32 %23, %24
  br i1 %25, label %26, label %33

26:                                               ; preds = %19
  %27 = load i32, ptr %7, align 4
  %28 = load i32, ptr %9, align 4
  %29 = add i32 %27, %28
  %30 = load i32, ptr %10, align 4
  %31 = load i32, ptr %9, align 4
  %32 = sub i32 %30, %31
  call void @expand_clr(i32 noundef %29, i32 noundef %32)
  br label %33

33:                                               ; preds = %26, %19
  br label %34

34:                                               ; preds = %33, %14
  ret void
}

; Function Attrs: nounwind sspstrong uwtable
define dso_local void @tcg_gen_gvec_shli(i32 noundef %0, i32 noundef %1, i32 noundef %2, i64 noundef %3, i32 noundef %4, i32 noundef %5) #0 {
  %7 = alloca i32, align 4
  %8 = alloca i32, align 4
  %9 = alloca i32, align 4
  %10 = alloca i64, align 8
  %11 = alloca i32, align 4
  %12 = alloca i32, align 4
  store i32 %0, ptr %7, align 4
  store i32 %1, ptr %8, align 4
  store i32 %2, ptr %9, align 4
  store i64 %3, ptr %10, align 8
  store i32 %4, ptr %11, align 4
  store i32 %5, ptr %12, align 4
  br label %13

13:                                               ; preds = %6
  %14 = load i32, ptr %7, align 4
  %15 = icmp ule i32 %14, 3
  br i1 %15, label %17, label %16

16:                                               ; preds = %13
  unreachable

17:                                               ; preds = %13
  br label %18

18:                                               ; preds = %17
  br label %19

19:                                               ; preds = %18
  %20 = load i64, ptr %10, align 8
  %21 = icmp sge i64 %20, 0
  br i1 %21, label %22, label %28

22:                                               ; preds = %19
  %23 = load i64, ptr %10, align 8
  %24 = load i32, ptr %7, align 4
  %25 = shl i32 8, %24
  %26 = sext i32 %25 to i64
  %27 = icmp slt i64 %23, %26
  br i1 %27, label %29, label %28

28:                                               ; preds = %22, %19
  unreachable

29:                                               ; preds = %22
  br label %30

30:                                               ; preds = %29
  %31 = load i64, ptr %10, align 8
  %32 = icmp eq i64 %31, 0
  br i1 %32, label %33, label %39

33:                                               ; preds = %30
  %34 = load i32, ptr %7, align 4
  %35 = load i32, ptr %8, align 4
  %36 = load i32, ptr %9, align 4
  %37 = load i32, ptr %11, align 4
  %38 = load i32, ptr %12, align 4
  call void @tcg_gen_gvec_mov(i32 noundef %34, i32 noundef %35, i32 noundef %36, i32 noundef %37, i32 noundef %38)
  br label %48

39:                                               ; preds = %30
  %40 = load i32, ptr %8, align 4
  %41 = load i32, ptr %9, align 4
  %42 = load i32, ptr %11, align 4
  %43 = load i32, ptr %12, align 4
  %44 = load i64, ptr %10, align 8
  %45 = load i32, ptr %7, align 4
  %46 = zext i32 %45 to i64
  %47 = getelementptr inbounds nuw [4 x %struct.GVecGen2i], ptr @tcg_gen_gvec_shli.g, i64 0, i64 %46
  call void @tcg_gen_gvec_2i(i32 noundef %40, i32 noundef %41, i32 noundef %42, i32 noundef %43, i64 noundef %44, ptr noundef %47)
  br label %48

48:                                               ; preds = %39, %33
  ret void
}