; Function Attrs: nounwind sspstrong uwtable
define dso_local void @tcg_gen_gvec_shli(i32 noundef %0, i32 noundef %1, i32 noundef %2, i64 noundef %3, i32 noundef %4, i32 noundef %5) local_unnamed_addr #2 {
  %7 = icmp ult i32 %0, 4
  tail call void @llvm.assume(i1 %7)
  %8 = icmp sgt i64 %3, -1
  tail call void @llvm.assume(i1 %8)
  %9 = shl nuw nsw i32 8, %0
  %10 = zext nneg i32 %9 to i64
  %11 = icmp samesign ult i64 %3, %10
  tail call void @llvm.assume(i1 %11)
  %12 = icmp eq i64 %3, 0
  br i1 %12, label %13, label %31

13:                                               ; preds = %6
  %.not.i = icmp eq i32 %1, %2
  br i1 %.not.i, label %15, label %14

14:                                               ; preds = %13
  tail call void @tcg_gen_gvec_2(i32 noundef %1, i32 noundef %2, i32 noundef %4, i32 noundef %5, ptr noundef nonnull @tcg_gen_gvec_mov.g)
  br label %tcg_gen_gvec_mov.exit

15:                                               ; preds = %13
  switch i32 %4, label %18 [
    i32 8, label %16
    i32 16, label %16
    i32 32, label %16
  ]

16:                                               ; preds = %15, %15, %15
  %17 = icmp ule i32 %4, %5
  br label %check_size_align.exit.i

18:                                               ; preds = %15
  %19 = icmp eq i32 %4, %5
  br label %check_size_align.exit.i

check_size_align.exit.i:                          ; preds = %18, %16
  %.sink.i.i = phi i1 [ %17, %16 ], [ %19, %18 ]
  tail call void @llvm.assume(i1 %.sink.i.i)
  %20 = icmp ult i32 %5, 2049
  tail call void @llvm.assume(i1 %20)
  %21 = icmp samesign ugt i32 %5, 15
  %22 = select i1 %21, i32 15, i32 7
  %23 = and i32 %22, %5
  %24 = icmp eq i32 %23, 0
  tail call void @llvm.assume(i1 %24)
  %25 = and i32 %22, %1
  %26 = icmp eq i32 %25, 0
  tail call void @llvm.assume(i1 %26)
  %27 = icmp ult i32 %4, %5
  br i1 %27, label %28, label %tcg_gen_gvec_mov.exit

28:                                               ; preds = %check_size_align.exit.i
  %29 = add i32 %4, %1
  %30 = sub nuw nsw i32 %5, %4
  tail call fastcc void @do_dup(i32 noundef 0, i32 noundef %29, i32 noundef %30, i32 noundef %30, ptr noundef null, ptr noundef null, i64 noundef 0)
  br label %tcg_gen_gvec_mov.exit

31:                                               ; preds = %6
  %32 = zext nneg i32 %0 to i64
  %33 = getelementptr inbounds nuw [4 x %struct.GVecGen2i], ptr @tcg_gen_gvec_shli.g, i64 0, i64 %32
  tail call void @tcg_gen_gvec_2i(i32 noundef %1, i32 noundef %2, i32 noundef %4, i32 noundef %5, i64 noundef %3, ptr noundef nonnull %33)
  br label %tcg_gen_gvec_mov.exit

tcg_gen_gvec_mov.exit:                            ; preds = %28, %check_size_align.exit.i, %14, %31
  ret void
}